target datalayout = "e-m:e-p270:32:32-p271:32:32-p272:64:64-i64:64-i128:128-f80:128-n8:16:32:64-S128"
target triple = "x86_64-pc-linux-gnu"

%struct.strbuf = type { i64, i64, ptr }
%struct.strvec = type { ptr, i64, i64 }
%struct.object_id = type { [32 x i8], i32 }
%struct.commit = type { %struct.object, i64, ptr, ptr, i32 }
%struct.object = type { i32, %struct.object_id }
%struct.child_process = type { %struct.strvec, %struct.strvec, i32, i32, i64, ptr, ptr, i32, i32, i32, ptr, i16, ptr }

@the_repository = external global ptr, align 8
@.str.30 = private unnamed_addr constant [6 x i8] c"amend\00", align 1
@.str.31 = private unnamed_addr constant [36 x i8] c"Notes added by 'git commit --amend'\00", align 1
@__const.run_rewrite_hook.sb = private unnamed_addr constant %struct.strbuf { i64 0, i64 0, ptr @strbuf_slopbuf }, align 8
@.str.118 = private unnamed_addr constant [13 x i8] c"post-rewrite\00", align 1
@.str.119 = private unnamed_addr constant [7 x i8] c"%s %s\0A\00", align 1

; Function Attrs: nounwind uwtable
define internal i32 @run_rewrite_hook(ptr noundef %0, ptr noundef %1) #0 {
  %3 = alloca i32, align 4
  %4 = alloca ptr, align 8
  %5 = alloca ptr, align 8
  %6 = alloca %struct.child_process, align 8
  %7 = alloca i32, align 4
  %8 = alloca %struct.strbuf, align 8
  %9 = alloca ptr, align 8
  %10 = alloca i32, align 4
  store ptr %0, ptr %4, align 8, !tbaa !84
  store ptr %1, ptr %5, align 8, !tbaa !84
  call void @llvm.lifetime.start.p0(i64 120, ptr %6) #11
  call void @llvm.memcpy.p0.p0.i64(ptr align 8 %6, ptr align 8 @__const.run_rewrite_hook.proc, i64 120, i1 false)
  call void @llvm.lifetime.start.p0(i64 4, ptr %7) #11
  call void @llvm.lifetime.start.p0(i64 24, ptr %8) #11
  call void @llvm.memcpy.p0.p0.i64(ptr align 8 %8, ptr align 8 @__const.run_rewrite_hook.sb, i64 24, i1 false)
  call void @llvm.lifetime.start.p0(i64 8, ptr %9) #11
  %11 = load ptr, ptr @the_repository, align 8, !tbaa !9
  %12 = call ptr @find_hook(ptr noundef %11, ptr noundef @.str.118)
  store ptr %12, ptr %9, align 8, !tbaa !4
  %13 = load ptr, ptr %9, align 8, !tbaa !4
  %14 = icmp ne ptr %13, null
  br i1 %14, label %16, label %15

15:                                               ; preds = %2
  store i32 0, ptr %3, align 4
  store i32 1, ptr %10, align 4
  br label %48

16:                                               ; preds = %2
  %17 = getelementptr inbounds nuw %struct.child_process, ptr %6, i32 0, i32 0
  %18 = load ptr, ptr %9, align 8, !tbaa !4
  call void (ptr, ...) @strvec_pushl(ptr noundef %17, ptr noundef %18, ptr noundef @.str.30, ptr noundef null)
  %19 = getelementptr inbounds nuw %struct.child_process, ptr %6, i32 0, i32 7
  store i32 -1, ptr %19, align 8, !tbaa !90
  %20 = getelementptr inbounds nuw %struct.child_process, ptr %6, i32 0, i32 11
  %21 = load i16, ptr %20, align 8
  %22 = and i16 %21, -129
  %23 = or i16 %22, 128
  store i16 %23, ptr %20, align 8
  %24 = getelementptr inbounds nuw %struct.child_process, ptr %6, i32 0, i32 6
  store ptr @.str.118, ptr %24, align 8, !tbaa !92
  %25 = call i32 @start_command(ptr noundef %6)
  store i32 %25, ptr %7, align 4, !tbaa !29
  %26 = load i32, ptr %7, align 4, !tbaa !29
  %27 = icmp ne i32 %26, 0
  br i1 %27, label %28, label %30

28:                                               ; preds = %16
  %29 = load i32, ptr %7, align 4, !tbaa !29
  store i32 %29, ptr %3, align 4
  store i32 1, ptr %10, align 4
  br label %48

30:                                               ; preds = %16
  %31 = load ptr, ptr %4, align 8, !tbaa !84
  %32 = call ptr @oid_to_hex(ptr noundef %31)
  %33 = load ptr, ptr %5, align 8, !tbaa !84
  %34 = call ptr @oid_to_hex(ptr noundef %33)
  call void (ptr, ptr, ...) @strbuf_addf(ptr noundef %8, ptr noundef @.str.119, ptr noundef %32, ptr noundef %34)
  %35 = call i32 @sigchain_push(i32 noundef 13, ptr noundef inttoptr (i64 1 to ptr))
  %36 = getelementptr inbounds nuw %struct.child_process, ptr %6, i32 0, i32 7
  %37 = load i32, ptr %36, align 8, !tbaa !90
  %38 = getelementptr inbounds nuw %struct.strbuf, ptr %8, i32 0, i32 2
  %39 = load ptr, ptr %38, align 8, !tbaa !37
  %40 = getelementptr inbounds nuw %struct.strbuf, ptr %8, i32 0, i32 1
  %41 = load i64, ptr %40, align 8, !tbaa !45
  %42 = call i64 @write_in_full(i32 noundef %37, ptr noundef %39, i64 noundef %41)
  %43 = getelementptr inbounds nuw %struct.child_process, ptr %6, i32 0, i32 7
  %44 = load i32, ptr %43, align 8, !tbaa !90
  %45 = call i32 @close(i32 noundef %44)
  call void @strbuf_release(ptr noundef %8)
  %46 = call i32 @sigchain_pop(i32 noundef 13)
  %47 = call i32 @finish_command(ptr noundef %6)
  store i32 %47, ptr %3, align 4
  store i32 1, ptr %10, align 4
  br label %48

48:                                               ; preds = %30, %28, %15
  call void @llvm.lifetime.end.p0(i64 8, ptr %9) #11
  call void @llvm.lifetime.end.p0(i64 24, ptr %8) #11
  call void @llvm.lifetime.end.p0(i64 4, ptr %7) #11
  call void @llvm.lifetime.end.p0(i64 120, ptr %6) #11
  %49 = load i32, ptr %3, align 4
  ret i32 %49
}

; Function Attrs: nounwind uwtable
define dso_local void @commit_post_rewrite(ptr noundef %0, ptr noundef %1, ptr noundef %2) #0 {
  %4 = alloca ptr, align 8
  %5 = alloca ptr, align 8
  %6 = alloca ptr, align 8
  %7 = alloca ptr, align 8
  store ptr %0, ptr %4, align 8, !tbaa !9
  store ptr %1, ptr %5, align 8, !tbaa !82
  store ptr %2, ptr %6, align 8, !tbaa !84
  call void @llvm.lifetime.start.p0(i64 8, ptr %7) #11
  %8 = call ptr @init_copy_notes_for_rewrite(ptr noundef @.str.30)
  store ptr %8, ptr %7, align 8, !tbaa !88
  %9 = load ptr, ptr %7, align 8, !tbaa !88
  %10 = icmp ne ptr %9, null
  br i1 %10, label %11, label %20

11:                                               ; preds = %3
  %12 = load ptr, ptr %7, align 8, !tbaa !88
  %13 = load ptr, ptr %5, align 8, !tbaa !82
  %14 = getelementptr inbounds nuw %struct.commit, ptr %13, i32 0, i32 0
  %15 = getelementptr inbounds nuw %struct.object, ptr %14, i32 0, i32 1
  %16 = load ptr, ptr %6, align 8, !tbaa !84
  %17 = call i32 @copy_note_for_rewrite(ptr noundef %12, ptr noundef %15, ptr noundef %16)
  %18 = load ptr, ptr %4, align 8, !tbaa !9
  %19 = load ptr, ptr %7, align 8, !tbaa !88
  call void @finish_copy_notes_for_rewrite(ptr noundef %18, ptr noundef %19, ptr noundef @.str.31)
  br label %20

20:                                               ; preds = %11, %3
  %21 = load ptr, ptr %5, align 8, !tbaa !82
  %22 = getelementptr inbounds nuw %struct.commit, ptr %21, i32 0, i32 0
  %23 = getelementptr inbounds nuw %struct.object, ptr %22, i32 0, i32 1
  %24 = load ptr, ptr %6, align 8, !tbaa !84
  %25 = call i32 @run_rewrite_hook(ptr noundef %23, ptr noundef %24)
  call void @llvm.lifetime.end.p0(i64 8, ptr %7) #11
  ret void
}