; Function Attrs: nounwind uwtable
define dso_local void @commit_post_rewrite(ptr noundef %0, ptr noundef %1, ptr noundef %2) local_unnamed_addr #0 {
  %4 = alloca %struct.child_process, align 8
  %5 = alloca %struct.strbuf, align 8
  %6 = tail call ptr @init_copy_notes_for_rewrite(ptr noundef nonnull @.str.30) #20
  %.not = icmp eq ptr %6, null
  br i1 %.not, label %10, label %7

7:                                                ; preds = %3
  %8 = getelementptr inbounds nuw i8, ptr %1, i64 4
  %9 = tail call i32 @copy_note_for_rewrite(ptr noundef nonnull %6, ptr noundef nonnull %8, ptr noundef %2) #20
  tail call void @finish_copy_notes_for_rewrite(ptr noundef %0, ptr noundef nonnull %6, ptr noundef nonnull @.str.31) #20
  br label %10

10:                                               ; preds = %7, %3
  %11 = getelementptr inbounds nuw i8, ptr %1, i64 4
  call void @llvm.lifetime.start.p0(i64 120, ptr nonnull %4) #20
  call void @llvm.memcpy.p0.p0.i64(ptr noundef nonnull align 8 dereferenceable(120) %4, ptr noundef nonnull align 8 dereferenceable(120) @__const.do_merge.cmd, i64 120, i1 false)
  call void @llvm.lifetime.start.p0(i64 24, ptr nonnull %5) #20
  call void @llvm.memcpy.p0.p0.i64(ptr noundef nonnull align 8 dereferenceable(24) %5, ptr noundef nonnull align 8 dereferenceable(24) @__const.make_script_with_merges.label_from_message, i64 24, i1 false)
  %12 = load ptr, ptr @the_repository, align 8, !tbaa !9
  %13 = tail call ptr @find_hook(ptr noundef %12, ptr noundef nonnull @.str.118) #20
  %.not.i = icmp eq ptr %13, null
  br i1 %.not.i, label %run_rewrite_hook.exit, label %14

14:                                               ; preds = %10
  call void (ptr, ...) @strvec_pushl(ptr noundef nonnull %4, ptr noundef nonnull %13, ptr noundef nonnull @.str.30, ptr noundef null) #20
  %15 = getelementptr inbounds nuw i8, ptr %4, i64 80
  store i32 -1, ptr %15, align 8, !tbaa !66
  %16 = getelementptr inbounds nuw i8, ptr %4, i64 104
  %17 = load i16, ptr %16, align 8
  %18 = or i16 %17, 128
  store i16 %18, ptr %16, align 8
  %19 = getelementptr inbounds nuw i8, ptr %4, i64 72
  store ptr @.str.118, ptr %19, align 8, !tbaa !68
  %20 = call i32 @start_command(ptr noundef nonnull %4) #20
  %.not8.i = icmp eq i32 %20, 0
  br i1 %.not8.i, label %21, label %run_rewrite_hook.exit

21:                                               ; preds = %14
  %22 = call ptr @oid_to_hex(ptr noundef nonnull %11) #20
  %23 = call ptr @oid_to_hex(ptr noundef %2) #20
  call void (ptr, ptr, ...) @strbuf_addf(ptr noundef nonnull %5, ptr noundef nonnull @.str.119, ptr noundef %22, ptr noundef %23) #20
  %24 = call i32 @sigchain_push(i32 noundef 13, ptr noundef nonnull inttoptr (i64 1 to ptr)) #20
  %25 = load i32, ptr %15, align 8, !tbaa !66
  %26 = getelementptr inbounds nuw i8, ptr %5, i64 16
  %27 = load ptr, ptr %26, align 8, !tbaa !31
  %28 = getelementptr inbounds nuw i8, ptr %5, i64 8
  %29 = load i64, ptr %28, align 8, !tbaa !33
  %30 = call i64 @write_in_full(i32 noundef %25, ptr noundef %27, i64 noundef %29) #20
  %31 = load i32, ptr %15, align 8, !tbaa !66
  %32 = call i32 @close(i32 noundef %31) #20
  call void @strbuf_release(ptr noundef nonnull %5) #20
  %33 = call i32 @sigchain_pop(i32 noundef 13) #20
  %34 = call i32 @finish_command(ptr noundef nonnull %4) #20
  br label %run_rewrite_hook.exit

run_rewrite_hook.exit:                            ; preds = %10, %14, %21
  call void @llvm.lifetime.end.p0(i64 24, ptr nonnull %5) #20
  call void @llvm.lifetime.end.p0(i64 120, ptr nonnull %4) #20
  ret void
}